; Function Attrs: mustprogress nofree norecurse nosync nounwind willreturn memory(read, inaccessiblemem: none) uwtable
define hidden noundef zeroext i1 @_ZNK15model_evaluator20get_model_completionEv(ptr nocapture noundef nonnull readonly align 8 dereferenceable(8) %this) local_unnamed_addr #4 align 2 {
entry:
  %0 = load ptr, ptr %this, align 8
  %m_cfg.i = getelementptr inbounds i8, ptr %0, i64 144
  %1 = load ptr, ptr %m_cfg.i, align 8
  %m_model_completion = getelementptr inbounds i8, ptr %1, i64 1756
  %2 = load i8, ptr %m_model_completion, align 4
  %3 = and i8 %2, 1
  %tobool = icmp ne i8 %3, 0
  ret i1 %tobool
}